target datalayout = "e-m:e-p270:32:32-p271:32:32-p272:64:64-i64:64-i128:128-f80:128-n8:16:32:64-S128"
target triple = "x86_64-pc-linux-gnu"

%struct.SDL_AtomicInt = type { i32 }
%struct.SDL_TemporaryMemory = type { ptr, ptr, ptr }
%struct.SDL_TemporaryMemoryState = type { ptr, ptr }

@SDL_temporary_memory = internal global %struct.SDL_AtomicInt zeroinitializer, align 4

; Function Attrs: nounwind uwtable
define internal void @SDL_FreeTemporaryMemoryEntry(ptr noundef %0, ptr noundef %1, i1 noundef zeroext %2) #0 {
  %4 = alloca ptr, align 8
  %5 = alloca ptr, align 8
  %6 = alloca i8, align 1
  store ptr %0, ptr %4, align 8
  store ptr %1, ptr %5, align 8
  %7 = zext i1 %2 to i8
  store i8 %7, ptr %6, align 1
  %8 = load i8, ptr %6, align 1, !range !3, !noundef !4
  %9 = trunc i8 %8 to i1
  br i1 %9, label %10, label %14

10:                                               ; preds = %3
  %11 = load ptr, ptr %5, align 8
  %12 = getelementptr inbounds nuw %struct.SDL_TemporaryMemory, ptr %11, i32 0, i32 0
  %13 = load ptr, ptr %12, align 8
  call void @SDL_free_REAL(ptr noundef %13)
  br label %14

14:                                               ; preds = %10, %3
  %15 = load ptr, ptr %5, align 8
  call void @SDL_free_REAL(ptr noundef %15)
  ret void
}

; Function Attrs: nounwind uwtable
define internal void @SDL_UnlinkTemporaryMemoryEntry(ptr noundef %0, ptr noundef %1) #0 {
  %3 = alloca ptr, align 8
  %4 = alloca ptr, align 8
  store ptr %0, ptr %3, align 8
  store ptr %1, ptr %4, align 8
  %5 = load ptr, ptr %3, align 8
  %6 = getelementptr inbounds nuw %struct.SDL_TemporaryMemoryState, ptr %5, i32 0, i32 0
  %7 = load ptr, ptr %6, align 8
  %8 = load ptr, ptr %4, align 8
  %9 = icmp eq ptr %7, %8
  br i1 %9, label %10, label %16

10:                                               ; preds = %2
  %11 = load ptr, ptr %4, align 8
  %12 = getelementptr inbounds nuw %struct.SDL_TemporaryMemory, ptr %11, i32 0, i32 2
  %13 = load ptr, ptr %12, align 8
  %14 = load ptr, ptr %3, align 8
  %15 = getelementptr inbounds nuw %struct.SDL_TemporaryMemoryState, ptr %14, i32 0, i32 0
  store ptr %13, ptr %15, align 8
  br label %16

16:                                               ; preds = %10, %2
  %17 = load ptr, ptr %3, align 8
  %18 = getelementptr inbounds nuw %struct.SDL_TemporaryMemoryState, ptr %17, i32 0, i32 1
  %19 = load ptr, ptr %18, align 8
  %20 = load ptr, ptr %4, align 8
  %21 = icmp eq ptr %19, %20
  br i1 %21, label %22, label %28

22:                                               ; preds = %16
  %23 = load ptr, ptr %4, align 8
  %24 = getelementptr inbounds nuw %struct.SDL_TemporaryMemory, ptr %23, i32 0, i32 1
  %25 = load ptr, ptr %24, align 8
  %26 = load ptr, ptr %3, align 8
  %27 = getelementptr inbounds nuw %struct.SDL_TemporaryMemoryState, ptr %26, i32 0, i32 1
  store ptr %25, ptr %27, align 8
  br label %28

28:                                               ; preds = %22, %16
  %29 = load ptr, ptr %4, align 8
  %30 = getelementptr inbounds nuw %struct.SDL_TemporaryMemory, ptr %29, i32 0, i32 1
  %31 = load ptr, ptr %30, align 8
  %32 = icmp ne ptr %31, null
  br i1 %32, label %33, label %41

33:                                               ; preds = %28
  %34 = load ptr, ptr %4, align 8
  %35 = getelementptr inbounds nuw %struct.SDL_TemporaryMemory, ptr %34, i32 0, i32 2
  %36 = load ptr, ptr %35, align 8
  %37 = load ptr, ptr %4, align 8
  %38 = getelementptr inbounds nuw %struct.SDL_TemporaryMemory, ptr %37, i32 0, i32 1
  %39 = load ptr, ptr %38, align 8
  %40 = getelementptr inbounds nuw %struct.SDL_TemporaryMemory, ptr %39, i32 0, i32 2
  store ptr %36, ptr %40, align 8
  br label %41

41:                                               ; preds = %33, %28
  %42 = load ptr, ptr %4, align 8
  %43 = getelementptr inbounds nuw %struct.SDL_TemporaryMemory, ptr %42, i32 0, i32 2
  %44 = load ptr, ptr %43, align 8
  %45 = icmp ne ptr %44, null
  br i1 %45, label %46, label %54

46:                                               ; preds = %41
  %47 = load ptr, ptr %4, align 8
  %48 = getelementptr inbounds nuw %struct.SDL_TemporaryMemory, ptr %47, i32 0, i32 1
  %49 = load ptr, ptr %48, align 8
  %50 = load ptr, ptr %4, align 8
  %51 = getelementptr inbounds nuw %struct.SDL_TemporaryMemory, ptr %50, i32 0, i32 2
  %52 = load ptr, ptr %51, align 8
  %53 = getelementptr inbounds nuw %struct.SDL_TemporaryMemory, ptr %52, i32 0, i32 1
  store ptr %49, ptr %53, align 8
  br label %54

54:                                               ; preds = %46, %41
  %55 = load ptr, ptr %4, align 8
  %56 = getelementptr inbounds nuw %struct.SDL_TemporaryMemory, ptr %55, i32 0, i32 1
  store ptr null, ptr %56, align 8
  %57 = load ptr, ptr %4, align 8
  %58 = getelementptr inbounds nuw %struct.SDL_TemporaryMemory, ptr %57, i32 0, i32 2
  store ptr null, ptr %58, align 8
  ret void
}

; Function Attrs: nounwind uwtable
define internal ptr @SDL_GetTemporaryMemoryEntry(ptr noundef %0, ptr noundef %1) #0 {
  %3 = alloca ptr, align 8
  %4 = alloca ptr, align 8
  %5 = alloca ptr, align 8
  %6 = alloca ptr, align 8
  %7 = alloca i32, align 4
  store ptr %0, ptr %4, align 8
  store ptr %1, ptr %5, align 8
  call void @llvm.lifetime.start.p0(i64 8, ptr %6) #5
  %8 = load ptr, ptr %4, align 8
  %9 = getelementptr inbounds nuw %struct.SDL_TemporaryMemoryState, ptr %8, i32 0, i32 1
  %10 = load ptr, ptr %9, align 8
  store ptr %10, ptr %6, align 8
  br label %11

11:                                               ; preds = %23, %2
  %12 = load ptr, ptr %6, align 8
  %13 = icmp ne ptr %12, null
  br i1 %13, label %14, label %27

14:                                               ; preds = %11
  %15 = load ptr, ptr %5, align 8
  %16 = load ptr, ptr %6, align 8
  %17 = getelementptr inbounds nuw %struct.SDL_TemporaryMemory, ptr %16, i32 0, i32 0
  %18 = load ptr, ptr %17, align 8
  %19 = icmp eq ptr %15, %18
  br i1 %19, label %20, label %22

20:                                               ; preds = %14
  %21 = load ptr, ptr %6, align 8
  store ptr %21, ptr %3, align 8
  store i32 1, ptr %7, align 4
  br label %28

22:                                               ; preds = %14
  br label %23

23:                                               ; preds = %22
  %24 = load ptr, ptr %6, align 8
  %25 = getelementptr inbounds nuw %struct.SDL_TemporaryMemory, ptr %24, i32 0, i32 1
  %26 = load ptr, ptr %25, align 8
  store ptr %26, ptr %6, align 8
  br label %11, !llvm.loop !5

27:                                               ; preds = %11
  store ptr null, ptr %3, align 8
  store i32 1, ptr %7, align 4
  br label %28

28:                                               ; preds = %27, %20
  call void @llvm.lifetime.end.p0(i64 8, ptr %6) #5
  %29 = load ptr, ptr %3, align 8
  ret ptr %29
}

; Function Attrs: nounwind uwtable
define internal ptr @SDL_GetTemporaryMemoryState(i1 noundef zeroext %0) #0 {
  %2 = alloca ptr, align 8
  %3 = alloca i8, align 1
  %4 = alloca ptr, align 8
  %5 = alloca i32, align 4
  %6 = zext i1 %0 to i8
  store i8 %6, ptr %3, align 1
  call void @llvm.lifetime.start.p0(i64 8, ptr %4) #5
  %7 = call ptr @SDL_GetTLS_REAL(ptr noundef @SDL_temporary_memory)
  store ptr %7, ptr %4, align 8
  %8 = load ptr, ptr %4, align 8
  %9 = icmp ne ptr %8, null
  br i1 %9, label %25, label %10

10:                                               ; preds = %1
  %11 = load i8, ptr %3, align 1, !range !3, !noundef !4
  %12 = trunc i8 %11 to i1
  br i1 %12, label %14, label %13

13:                                               ; preds = %10
  store ptr null, ptr %2, align 8
  store i32 1, ptr %5, align 4
  br label %27

14:                                               ; preds = %10
  %15 = call noalias ptr @SDL_calloc_REAL(i64 noundef 1, i64 noundef 16) #6
  store ptr %15, ptr %4, align 8
  %16 = load ptr, ptr %4, align 8
  %17 = icmp ne ptr %16, null
  br i1 %17, label %19, label %18

18:                                               ; preds = %14
  store ptr null, ptr %2, align 8
  store i32 1, ptr %5, align 4
  br label %27

19:                                               ; preds = %14
  %20 = load ptr, ptr %4, align 8
  %21 = call zeroext i1 @SDL_SetTLS_REAL(ptr noundef @SDL_temporary_memory, ptr noundef %20, ptr noundef @SDL_CleanupTemporaryMemory)
  br i1 %21, label %24, label %22

22:                                               ; preds = %19
  %23 = load ptr, ptr %4, align 8
  call void @SDL_free_REAL(ptr noundef %23)
  store ptr null, ptr %2, align 8
  store i32 1, ptr %5, align 4
  br label %27

24:                                               ; preds = %19
  br label %25

25:                                               ; preds = %24, %1
  %26 = load ptr, ptr %4, align 8
  store ptr %26, ptr %2, align 8
  store i32 1, ptr %5, align 4
  br label %27

27:                                               ; preds = %25, %22, %18, %13
  call void @llvm.lifetime.end.p0(i64 8, ptr %4) #5
  %28 = load ptr, ptr %2, align 8
  ret ptr %28
}

; Function Attrs: nounwind uwtable
define hidden ptr @SDL_ClaimTemporaryMemory(ptr noundef %0) #0 {
  %2 = alloca ptr, align 8
  %3 = alloca ptr, align 8
  %4 = alloca ptr, align 8
  %5 = alloca ptr, align 8
  %6 = alloca i32, align 4
  store ptr %0, ptr %3, align 8
  call void @llvm.lifetime.start.p0(i64 8, ptr %4) #5
  %7 = call ptr @SDL_GetTemporaryMemoryState(i1 noundef zeroext false)
  store ptr %7, ptr %4, align 8
  %8 = load ptr, ptr %4, align 8
  %9 = icmp ne ptr %8, null
  br i1 %9, label %10, label %29

10:                                               ; preds = %1
  %11 = load ptr, ptr %3, align 8
  %12 = icmp ne ptr %11, null
  br i1 %12, label %13, label %29

13:                                               ; preds = %10
  call void @llvm.lifetime.start.p0(i64 8, ptr %5) #5
  %14 = load ptr, ptr %4, align 8
  %15 = load ptr, ptr %3, align 8
  %16 = call ptr @SDL_GetTemporaryMemoryEntry(ptr noundef %14, ptr noundef %15)
  store ptr %16, ptr %5, align 8
  %17 = load ptr, ptr %5, align 8
  %18 = icmp ne ptr %17, null
  br i1 %18, label %19, label %25

19:                                               ; preds = %13
  %20 = load ptr, ptr %4, align 8
  %21 = load ptr, ptr %5, align 8
  call void @SDL_UnlinkTemporaryMemoryEntry(ptr noundef %20, ptr noundef %21)
  %22 = load ptr, ptr %4, align 8
  %23 = load ptr, ptr %5, align 8
  call void @SDL_FreeTemporaryMemoryEntry(ptr noundef %22, ptr noundef %23, i1 noundef zeroext false)
  %24 = load ptr, ptr %3, align 8
  store ptr %24, ptr %2, align 8
  store i32 1, ptr %6, align 4
  br label %26

25:                                               ; preds = %13
  store i32 0, ptr %6, align 4
  br label %26

26:                                               ; preds = %25, %19
  call void @llvm.lifetime.end.p0(i64 8, ptr %5) #5
  %27 = load i32, ptr %6, align 4
  switch i32 %27, label %30 [
    i32 0, label %28
  ]

28:                                               ; preds = %26
  br label %29

29:                                               ; preds = %28, %10, %1
  store ptr null, ptr %2, align 8
  store i32 1, ptr %6, align 4
  br label %30

30:                                               ; preds = %29, %26
  call void @llvm.lifetime.end.p0(i64 8, ptr %4) #5
  %31 = load ptr, ptr %2, align 8
  ret ptr %31
}