; Function Attrs: nounwind uwtable
define hidden noundef ptr @SDL_ClaimTemporaryMemory(ptr noundef readnone captures(address, ret: address, provenance) %0) local_unnamed_addr #0 {
  %2 = tail call ptr @SDL_GetTLS_REAL(ptr noundef nonnull @SDL_temporary_memory) #8
  %3 = icmp ne ptr %2, null
  %4 = icmp ne ptr %0, null
  %or.cond = and i1 %4, %3
  br i1 %or.cond, label %.preheader, label %.critedge

.preheader:                                       ; preds = %1, %5
  %.pn.i = phi ptr [ %.0.i, %5 ], [ %2, %1 ]
  %.0.in.i = getelementptr inbounds nuw i8, ptr %.pn.i, i64 8
  %.0.i = load ptr, ptr %.0.in.i, align 8
  %.not.i16 = icmp eq ptr %.0.i, null
  br i1 %.not.i16, label %.critedge, label %5

5:                                                ; preds = %.preheader
  %6 = load ptr, ptr %.0.i, align 8
  %7 = icmp eq ptr %0, %6
  br i1 %7, label %SDL_GetTemporaryMemoryEntry.exit, label %.preheader, !llvm.loop !3

SDL_GetTemporaryMemoryEntry.exit:                 ; preds = %5
  %8 = load ptr, ptr %2, align 8
  %9 = icmp eq ptr %8, %.0.i
  br i1 %9, label %10, label %13

10:                                               ; preds = %SDL_GetTemporaryMemoryEntry.exit
  %11 = getelementptr inbounds nuw i8, ptr %.0.i, i64 16
  %12 = load ptr, ptr %11, align 8
  store ptr %12, ptr %2, align 8
  br label %13

13:                                               ; preds = %10, %SDL_GetTemporaryMemoryEntry.exit
  %14 = getelementptr inbounds nuw i8, ptr %2, i64 8
  %15 = load ptr, ptr %14, align 8
  %16 = icmp eq ptr %15, %.0.i
  %17 = getelementptr inbounds nuw i8, ptr %.0.i, i64 8
  %18 = load ptr, ptr %17, align 8
  br i1 %16, label %19, label %._crit_edge.i

19:                                               ; preds = %13
  store ptr %18, ptr %14, align 8
  br label %._crit_edge.i

._crit_edge.i:                                    ; preds = %19, %13
  %.not.i17 = icmp eq ptr %18, null
  %.phi.trans.insert20.i = getelementptr inbounds nuw i8, ptr %.0.i, i64 16
  %.pre21.i = load ptr, ptr %.phi.trans.insert20.i, align 8
  br i1 %.not.i17, label %._crit_edge19.i, label %20

20:                                               ; preds = %._crit_edge.i
  %21 = getelementptr inbounds nuw i8, ptr %18, i64 16
  store ptr %.pre21.i, ptr %21, align 8
  br label %._crit_edge19.i

._crit_edge19.i:                                  ; preds = %20, %._crit_edge.i
  %.not18.i = icmp eq ptr %.pre21.i, null
  br i1 %.not18.i, label %SDL_UnlinkTemporaryMemoryEntry.exit, label %22

22:                                               ; preds = %._crit_edge19.i
  %23 = load ptr, ptr %17, align 8
  %24 = getelementptr inbounds nuw i8, ptr %.pre21.i, i64 8
  store ptr %23, ptr %24, align 8
  br label %SDL_UnlinkTemporaryMemoryEntry.exit

SDL_UnlinkTemporaryMemoryEntry.exit:              ; preds = %._crit_edge19.i, %22
  tail call void @llvm.memset.p0.i64(ptr noundef nonnull align 8 dereferenceable(16) %17, i8 0, i64 16, i1 false)
  tail call void @SDL_free_REAL(ptr noundef nonnull %.0.i) #8
  br label %.critedge

.critedge:                                        ; preds = %.preheader, %1, %SDL_UnlinkTemporaryMemoryEntry.exit
  %.1 = phi ptr [ %0, %SDL_UnlinkTemporaryMemoryEntry.exit ], [ null, %1 ], [ null, %.preheader ]
  ret ptr %.1
}